target datalayout = "e-m:e-p270:32:32-p271:32:32-p272:64:64-i64:64-i128:128-f80:128-n8:16:32:64-S128"
target triple = "x86_64-pc-linux-gnu"

%struct.TT_GraphicsState_ = type { i16, i16, i16, %struct.FT_UnitVector_, %struct.FT_UnitVector_, %struct.FT_UnitVector_, i64, i64, i32, i8, i64, i64, i64, i16, i16, i8, i8, i32, i16, i16, i16 }
%struct.FT_UnitVector_ = type { i16, i16 }
%struct.TT_GlyphZoneRec_ = type { ptr, i16, i16, i16, i16, ptr, ptr, ptr, ptr, ptr, i16 }
%struct.FT_Size_Metrics_ = type { i16, i16, i64, i64, i64, i64, i64, i64 }
%struct.TT_Size_Metrics_ = type { i64, i64, i16, i64, i64, [4 x i64], i8, i8, i8 }
%struct.TT_CodeRange_ = type { ptr, i64 }
%struct.TT_ExecContextRec_ = type { ptr, ptr, ptr, i32, i64, i64, ptr, i64, i64, %struct.TT_GlyphZoneRec_, %struct.TT_GlyphZoneRec_, %struct.TT_GlyphZoneRec_, %struct.TT_GlyphZoneRec_, %struct.TT_GlyphZoneRec_, i64, %struct.FT_Size_Metrics_, %struct.TT_Size_Metrics_, %struct.TT_GraphicsState_, i32, i32, ptr, i64, i64, i8, i32, i8, i64, ptr, i64, ptr, i32, ptr, i32, i32, ptr, i32, i32, ptr, i32, i32, i32, i32, ptr, i16, i16, [3 x %struct.TT_CodeRange_], i16, ptr, i16, ptr, i64, i64, i64, i8, %struct.TT_GraphicsState_, i8, i8, i64, ptr, ptr, ptr, ptr, ptr, ptr, ptr, ptr, ptr, ptr, i8, i8, i8, i8, i8, i8, i8, i64, i64, i64, i64 }

; Function Attrs: nounwind uwtable
define internal void @Ins_PUSHB(ptr noundef %0, ptr noundef %1) #0 {
  %3 = alloca ptr, align 8
  %4 = alloca ptr, align 8
  %5 = alloca i16, align 2
  %6 = alloca i16, align 2
  store ptr %0, ptr %3, align 8
  store ptr %1, ptr %4, align 8
  %7 = load ptr, ptr %3, align 8
  %8 = getelementptr inbounds %struct.TT_ExecContextRec_, ptr %7, i32 0, i32 23
  %9 = load i8, ptr %8, align 8
  %10 = zext i8 %9 to i32
  %11 = sub nsw i32 %10, 176
  %12 = add nsw i32 %11, 1
  %13 = trunc i32 %12 to i16
  store i16 %13, ptr %5, align 2
  %14 = load i16, ptr %5, align 2
  %15 = zext i16 %14 to i32
  %16 = load ptr, ptr %3, align 8
  %17 = getelementptr inbounds %struct.TT_ExecContextRec_, ptr %16, i32 0, i32 5
  %18 = load i64, ptr %17, align 8
  %19 = add nsw i64 %18, 1
  %20 = load ptr, ptr %3, align 8
  %21 = getelementptr inbounds %struct.TT_ExecContextRec_, ptr %20, i32 0, i32 4
  %22 = load i64, ptr %21, align 8
  %23 = sub nsw i64 %19, %22
  %24 = trunc i64 %23 to i32
  %25 = icmp uge i32 %15, %24
  br i1 %25, label %26, label %29

26:                                               ; preds = %2
  %27 = load ptr, ptr %3, align 8
  %28 = getelementptr inbounds %struct.TT_ExecContextRec_, ptr %27, i32 0, i32 3
  store i32 130, ptr %28, align 8
  br label %58

29:                                               ; preds = %2
  store i16 1, ptr %6, align 2
  br label %30

30:                                               ; preds = %55, %29
  %31 = load i16, ptr %6, align 2
  %32 = zext i16 %31 to i32
  %33 = load i16, ptr %5, align 2
  %34 = zext i16 %33 to i32
  %35 = icmp sle i32 %32, %34
  br i1 %35, label %36, label %58

36:                                               ; preds = %30
  %37 = load ptr, ptr %3, align 8
  %38 = getelementptr inbounds %struct.TT_ExecContextRec_, ptr %37, i32 0, i32 20
  %39 = load ptr, ptr %38, align 8
  %40 = load ptr, ptr %3, align 8
  %41 = getelementptr inbounds %struct.TT_ExecContextRec_, ptr %40, i32 0, i32 21
  %42 = load i64, ptr %41, align 8
  %43 = load i16, ptr %6, align 2
  %44 = zext i16 %43 to i64
  %45 = add nsw i64 %42, %44
  %46 = getelementptr inbounds i8, ptr %39, i64 %45
  %47 = load i8, ptr %46, align 1
  %48 = zext i8 %47 to i64
  %49 = load ptr, ptr %4, align 8
  %50 = load i16, ptr %6, align 2
  %51 = zext i16 %50 to i32
  %52 = sub nsw i32 %51, 1
  %53 = sext i32 %52 to i64
  %54 = getelementptr inbounds i64, ptr %49, i64 %53
  store i64 %48, ptr %54, align 8
  br label %55

55:                                               ; preds = %36
  %56 = load i16, ptr %6, align 2
  %57 = add i16 %56, 1
  store i16 %57, ptr %6, align 2
  br label %30, !llvm.loop !38

58:                                               ; preds = %30, %26
  ret void
}