; Function Attrs: nofree norecurse nosync nounwind memory(read, argmem: readwrite, inaccessiblemem: none) uwtable
define internal fastcc void @Ins_PUSHB(ptr nocapture noundef %0, ptr nocapture noundef writeonly %1) unnamed_addr #7 {
  %3 = getelementptr inbounds i8, ptr %0, i64 664
  %4 = load i8, ptr %3, align 8
  %5 = zext i8 %4 to i32
  %6 = add nuw nsw i32 %5, 65361
  %7 = and i32 %6, 65535
  %8 = getelementptr inbounds i8, ptr %0, i64 40
  %9 = load i64, ptr %8, align 8
  %10 = add nsw i64 %9, 1
  %11 = getelementptr inbounds i8, ptr %0, i64 32
  %12 = load i64, ptr %11, align 8
  %13 = sub i64 %10, %12
  %14 = trunc i64 %13 to i32
  %.not = icmp ult i32 %7, %14
  br i1 %.not, label %.preheader, label %18

.preheader:                                       ; preds = %2
  %invariant.gep = getelementptr i8, ptr %1, i64 -8
  %.not1415 = icmp eq i32 %7, 0
  br i1 %.not1415, label %.loopexit, label %.lr.ph

.lr.ph:                                           ; preds = %.preheader
  %15 = getelementptr inbounds i8, ptr %0, i64 640
  %16 = getelementptr inbounds i8, ptr %0, i64 648
  %17 = trunc i32 %6 to i16
  br label %20

18:                                               ; preds = %2
  %19 = getelementptr inbounds i8, ptr %0, i64 24
  store i32 130, ptr %19, align 8
  br label %.loopexit

20:                                               ; preds = %.lr.ph, %20
  %.016 = phi i16 [ 1, %.lr.ph ], [ %28, %20 ]
  %21 = load ptr, ptr %15, align 8
  %22 = load i64, ptr %16, align 8
  %23 = zext i16 %.016 to i64
  %24 = getelementptr i8, ptr %21, i64 %22
  %25 = getelementptr i8, ptr %24, i64 %23
  %26 = load i8, ptr %25, align 1
  %27 = zext i8 %26 to i64
  %gep = getelementptr i64, ptr %invariant.gep, i64 %23
  store i64 %27, ptr %gep, align 8
  %28 = add i16 %.016, 1
  %.not14 = icmp ugt i16 %28, %17
  br i1 %.not14, label %.loopexit, label %20, !llvm.loop !43

.loopexit:                                        ; preds = %20, %.preheader, %18
  ret void
}